target datalayout = "e-m:e-p270:32:32-p271:32:32-p272:64:64-i64:64-i128:128-f80:128-n8:16:32:64-S128"
target triple = "x86_64-pc-linux-gnu"

%struct.WOLFSSL = type <{ ptr, ptr, ptr, ptr, [48 x i8], [48 x i8], ptr, ptr, ptr, ptr, ptr, ptr, ptr, ptr, ptr, ptr, ptr, ptr, ptr, i32, [4 x i8], %struct.WOLFSSL_CIPHER, ptr, %struct.Ciphers, %struct.Ciphers, [8 x i8], %struct.Buffers, ptr, ptr, %struct.WOLFSSL_ALERT_HISTORY, %struct.WOLFSSL_ALERT, i32, i32, i32, i32, i32, i32, i32, i16, [2 x i8], i32, i8, %struct.RecordLayerHeader, %struct.MsgsReceived, %struct.ProtocolVersion, %struct.ProtocolVersion, %struct.CipherSpecs, [2 x i8], %struct.Keys, %struct.Options, ptr, i8, i8, i16, [10 x i16], i8, i8, i16, i16, [38 x i8], i32, i32, [4 x i8], ptr, i8, i8, [6 x i8], ptr, ptr, i16, i8, i8, i32, i8, [3 x i8], i32, %struct.OneTimeAuth, ptr }>
%struct.WOLFSSL_CIPHER = type { i8, i8, ptr }
%struct.Ciphers = type { ptr, ptr, ptr, ptr, i8, i8 }
%struct.Buffers = type { %struct.bufferStatic, %struct.bufferStatic, %struct.WOLFSSL_BUFFER_INFO, %struct.WOLFSSL_BUFFER_INFO, %struct.WOLFSSL_BUFFER_INFO, %struct.WOLFSSL_BUFFER_INFO, i32, i32, i8, i8, i8, i8, %struct.WOLFSSL_BUFFER_INFO, %struct.WOLFSSL_BUFFER_INFO, %struct.WOLFSSL_BUFFER_INFO, %struct.WOLFSSL_BUFFER_INFO, ptr, ptr, ptr, i8, i8, i32, i32, ptr, i32, [1 x ptr] }
%struct.bufferStatic = type { [5 x i8], ptr, i32, i32, i32, i8, i8 }
%struct.WOLFSSL_BUFFER_INFO = type { ptr, i32 }
%struct.WOLFSSL_ALERT_HISTORY = type { %struct.WOLFSSL_ALERT, %struct.WOLFSSL_ALERT }
%struct.WOLFSSL_ALERT = type { i32, i32 }
%struct.RecordLayerHeader = type { i8, i8, i8, [2 x i8] }
%struct.MsgsReceived = type { i32 }
%struct.ProtocolVersion = type { i8, i8 }
%struct.CipherSpecs = type { i16, i16, i16, i16, i8, i8, i8, i8, i8, i8, i8, i8 }
%struct.Keys = type { [64 x i8], [64 x i8], [32 x i8], [32 x i8], [16 x i8], [16 x i8], [8 x i8], [12 x i8], [12 x i8], i32, i32, i32, i32, i32, i32, i8, i8, i8, i8 }
%struct.Options = type { i64, i64, i8, i8, i8, i8, i8, i8, i8, i8, i8, i8, i8, i8, i8, i8, i8, i8, i8, i8, i8, i8, i8, i16, i16, i16, i16, i16, i8 }
%struct.OneTimeAuth = type { ptr, i8 }

; Function Attrs: nounwind uwtable
define i32 @StoreKeys(ptr noundef %0, ptr noundef %1, i32 noundef %2) #0 {
  %4 = alloca ptr, align 8
  %5 = alloca ptr, align 8
  %6 = alloca i32, align 4
  %7 = alloca i64, align 8
  %8 = alloca i32, align 4
  %9 = alloca ptr, align 8
  store ptr %0, ptr %4, align 8, !tbaa !3
  store ptr %1, ptr %5, align 8, !tbaa !90
  store i32 %2, ptr %6, align 4, !tbaa !45
  call void @llvm.lifetime.start.p0(i64 8, ptr %7) #5
  call void @llvm.lifetime.start.p0(i64 4, ptr %8) #5
  store i32 0, ptr %8, align 4, !tbaa !45
  call void @llvm.lifetime.start.p0(i64 8, ptr %9) #5
  %10 = load ptr, ptr %4, align 8, !tbaa !3
  %11 = getelementptr inbounds nuw %struct.WOLFSSL, ptr %10, i32 0, i32 48
  store ptr %11, ptr %9, align 8, !tbaa !70
  %12 = load ptr, ptr %4, align 8, !tbaa !3
  %13 = getelementptr inbounds nuw %struct.WOLFSSL, ptr %12, i32 0, i32 46
  %14 = getelementptr inbounds nuw %struct.CipherSpecs, ptr %13, i32 0, i32 5
  %15 = load i8, ptr %14, align 1, !tbaa !49
  %16 = zext i8 %15 to i32
  %17 = icmp ne i32 %16, 2
  br i1 %17, label %18, label %58

18:                                               ; preds = %3
  %19 = load ptr, ptr %4, align 8, !tbaa !3
  %20 = getelementptr inbounds nuw %struct.WOLFSSL, ptr %19, i32 0, i32 46
  %21 = getelementptr inbounds nuw %struct.CipherSpecs, ptr %20, i32 0, i32 9
  %22 = load i8, ptr %21, align 1, !tbaa !91
  %23 = zext i8 %22 to i64
  store i64 %23, ptr %7, align 8, !tbaa !92
  %24 = load i32, ptr %6, align 4, !tbaa !45
  %25 = and i32 %24, 1
  %26 = icmp ne i32 %25, 0
  br i1 %26, label %27, label %40

27:                                               ; preds = %18
  %28 = load ptr, ptr %9, align 8, !tbaa !70
  %29 = getelementptr inbounds nuw %struct.Keys, ptr %28, i32 0, i32 0
  %30 = getelementptr inbounds [64 x i8], ptr %29, i64 0, i64 0
  %31 = load ptr, ptr %5, align 8, !tbaa !90
  %32 = load i32, ptr %8, align 4, !tbaa !45
  %33 = sext i32 %32 to i64
  %34 = getelementptr inbounds i8, ptr %31, i64 %33
  %35 = load i64, ptr %7, align 8, !tbaa !92
  call void @llvm.memcpy.p0.p0.i64(ptr align 4 %30, ptr align 1 %34, i64 %35, i1 false)
  %36 = load i64, ptr %7, align 8, !tbaa !92
  %37 = trunc i64 %36 to i32
  %38 = load i32, ptr %8, align 4, !tbaa !45
  %39 = add nsw i32 %38, %37
  store i32 %39, ptr %8, align 4, !tbaa !45
  br label %40

40:                                               ; preds = %27, %18
  %41 = load i32, ptr %6, align 4, !tbaa !45
  %42 = and i32 %41, 2
  %43 = icmp ne i32 %42, 0
  br i1 %43, label %44, label %57

44:                                               ; preds = %40
  %45 = load ptr, ptr %9, align 8, !tbaa !70
  %46 = getelementptr inbounds nuw %struct.Keys, ptr %45, i32 0, i32 1
  %47 = getelementptr inbounds [64 x i8], ptr %46, i64 0, i64 0
  %48 = load ptr, ptr %5, align 8, !tbaa !90
  %49 = load i32, ptr %8, align 4, !tbaa !45
  %50 = sext i32 %49 to i64
  %51 = getelementptr inbounds i8, ptr %48, i64 %50
  %52 = load i64, ptr %7, align 8, !tbaa !92
  call void @llvm.memcpy.p0.p0.i64(ptr align 4 %47, ptr align 1 %51, i64 %52, i1 false)
  %53 = load i64, ptr %7, align 8, !tbaa !92
  %54 = trunc i64 %53 to i32
  %55 = load i32, ptr %8, align 4, !tbaa !45
  %56 = add nsw i32 %55, %54
  store i32 %56, ptr %8, align 4, !tbaa !45
  br label %57

57:                                               ; preds = %44, %40
  br label %58

58:                                               ; preds = %57, %3
  %59 = load ptr, ptr %4, align 8, !tbaa !3
  %60 = getelementptr inbounds nuw %struct.WOLFSSL, ptr %59, i32 0, i32 46
  %61 = getelementptr inbounds nuw %struct.CipherSpecs, ptr %60, i32 0, i32 0
  %62 = load i16, ptr %61, align 2, !tbaa !93
  %63 = zext i16 %62 to i64
  store i64 %63, ptr %7, align 8, !tbaa !92
  %64 = load i32, ptr %6, align 4, !tbaa !45
  %65 = and i32 %64, 1
  %66 = icmp ne i32 %65, 0
  br i1 %66, label %67, label %80

67:                                               ; preds = %58
  %68 = load ptr, ptr %9, align 8, !tbaa !70
  %69 = getelementptr inbounds nuw %struct.Keys, ptr %68, i32 0, i32 2
  %70 = getelementptr inbounds [32 x i8], ptr %69, i64 0, i64 0
  %71 = load ptr, ptr %5, align 8, !tbaa !90
  %72 = load i32, ptr %8, align 4, !tbaa !45
  %73 = sext i32 %72 to i64
  %74 = getelementptr inbounds i8, ptr %71, i64 %73
  %75 = load i64, ptr %7, align 8, !tbaa !92
  call void @llvm.memcpy.p0.p0.i64(ptr align 4 %70, ptr align 1 %74, i64 %75, i1 false)
  %76 = load i64, ptr %7, align 8, !tbaa !92
  %77 = trunc i64 %76 to i32
  %78 = load i32, ptr %8, align 4, !tbaa !45
  %79 = add nsw i32 %78, %77
  store i32 %79, ptr %8, align 4, !tbaa !45
  br label %80

80:                                               ; preds = %67, %58
  %81 = load i32, ptr %6, align 4, !tbaa !45
  %82 = and i32 %81, 2
  %83 = icmp ne i32 %82, 0
  br i1 %83, label %84, label %97

84:                                               ; preds = %80
  %85 = load ptr, ptr %9, align 8, !tbaa !70
  %86 = getelementptr inbounds nuw %struct.Keys, ptr %85, i32 0, i32 3
  %87 = getelementptr inbounds [32 x i8], ptr %86, i64 0, i64 0
  %88 = load ptr, ptr %5, align 8, !tbaa !90
  %89 = load i32, ptr %8, align 4, !tbaa !45
  %90 = sext i32 %89 to i64
  %91 = getelementptr inbounds i8, ptr %88, i64 %90
  %92 = load i64, ptr %7, align 8, !tbaa !92
  call void @llvm.memcpy.p0.p0.i64(ptr align 4 %87, ptr align 1 %91, i64 %92, i1 false)
  %93 = load i64, ptr %7, align 8, !tbaa !92
  %94 = trunc i64 %93 to i32
  %95 = load i32, ptr %8, align 4, !tbaa !45
  %96 = add nsw i32 %95, %94
  store i32 %96, ptr %8, align 4, !tbaa !45
  br label %97

97:                                               ; preds = %84, %80
  %98 = load ptr, ptr %4, align 8, !tbaa !3
  %99 = getelementptr inbounds nuw %struct.WOLFSSL, ptr %98, i32 0, i32 46
  %100 = getelementptr inbounds nuw %struct.CipherSpecs, ptr %99, i32 0, i32 1
  %101 = load i16, ptr %100, align 2, !tbaa !94
  %102 = zext i16 %101 to i64
  store i64 %102, ptr %7, align 8, !tbaa !92
  %103 = load i32, ptr %6, align 4, !tbaa !45
  %104 = and i32 %103, 1
  %105 = icmp ne i32 %104, 0
  br i1 %105, label %106, label %119

106:                                              ; preds = %97
  %107 = load ptr, ptr %9, align 8, !tbaa !70
  %108 = getelementptr inbounds nuw %struct.Keys, ptr %107, i32 0, i32 4
  %109 = getelementptr inbounds [16 x i8], ptr %108, i64 0, i64 0
  %110 = load ptr, ptr %5, align 8, !tbaa !90
  %111 = load i32, ptr %8, align 4, !tbaa !45
  %112 = sext i32 %111 to i64
  %113 = getelementptr inbounds i8, ptr %110, i64 %112
  %114 = load i64, ptr %7, align 8, !tbaa !92
  call void @llvm.memcpy.p0.p0.i64(ptr align 4 %109, ptr align 1 %113, i64 %114, i1 false)
  %115 = load i64, ptr %7, align 8, !tbaa !92
  %116 = trunc i64 %115 to i32
  %117 = load i32, ptr %8, align 4, !tbaa !45
  %118 = add nsw i32 %117, %116
  store i32 %118, ptr %8, align 4, !tbaa !45
  br label %119

119:                                              ; preds = %106, %97
  %120 = load i32, ptr %6, align 4, !tbaa !45
  %121 = and i32 %120, 2
  %122 = icmp ne i32 %121, 0
  br i1 %122, label %123, label %132

123:                                              ; preds = %119
  %124 = load ptr, ptr %9, align 8, !tbaa !70
  %125 = getelementptr inbounds nuw %struct.Keys, ptr %124, i32 0, i32 5
  %126 = getelementptr inbounds [16 x i8], ptr %125, i64 0, i64 0
  %127 = load ptr, ptr %5, align 8, !tbaa !90
  %128 = load i32, ptr %8, align 4, !tbaa !45
  %129 = sext i32 %128 to i64
  %130 = getelementptr inbounds i8, ptr %127, i64 %129
  %131 = load i64, ptr %7, align 8, !tbaa !92
  call void @llvm.memcpy.p0.p0.i64(ptr align 4 %126, ptr align 1 %130, i64 %131, i1 false)
  br label %132

132:                                              ; preds = %123, %119
  %133 = load ptr, ptr %4, align 8, !tbaa !3
  %134 = getelementptr inbounds nuw %struct.WOLFSSL, ptr %133, i32 0, i32 46
  %135 = getelementptr inbounds nuw %struct.CipherSpecs, ptr %134, i32 0, i32 5
  %136 = load i8, ptr %135, align 1, !tbaa !49
  %137 = zext i8 %136 to i32
  %138 = icmp eq i32 %137, 2
  br i1 %138, label %139, label %143

139:                                              ; preds = %132
  %140 = load ptr, ptr %9, align 8, !tbaa !70
  %141 = getelementptr inbounds nuw %struct.Keys, ptr %140, i32 0, i32 6
  %142 = getelementptr inbounds [8 x i8], ptr %141, i64 0, i64 0
  call void @llvm.memset.p0.i64(ptr align 4 %142, i8 0, i64 8, i1 false)
  br label %143

143:                                              ; preds = %139, %132
  call void @llvm.lifetime.end.p0(i64 8, ptr %9) #5
  call void @llvm.lifetime.end.p0(i64 4, ptr %8) #5
  call void @llvm.lifetime.end.p0(i64 8, ptr %7) #5
  ret i32 0
}