; Function Attrs: mustprogress nofree norecurse nosync nounwind willreturn memory(argmem: readwrite) uwtable
define noundef i32 @StoreKeys(ptr noundef captures(none) %0, ptr noundef readonly captures(none) %1, i32 noundef %2) local_unnamed_addr #5 {
  %4 = getelementptr inbounds nuw i8, ptr %0, i64 732
  %5 = getelementptr inbounds nuw i8, ptr %0, i64 714
  %6 = getelementptr inbounds nuw i8, ptr %0, i64 723
  %7 = load i8, ptr %6, align 1, !tbaa !47
  %.not = icmp eq i8 %7, 2
  br i1 %.not, label %._crit_edge, label %8

._crit_edge:                                      ; preds = %3
  %.pre = and i32 %2, 1
  br label %23

8:                                                ; preds = %3
  %9 = getelementptr inbounds nuw i8, ptr %0, i64 727
  %10 = load i8, ptr %9, align 1, !tbaa !74
  %11 = zext i8 %10 to i64
  %12 = and i32 %2, 1
  %.not46 = icmp eq i32 %12, 0
  br i1 %.not46, label %15, label %13

13:                                               ; preds = %8
  tail call void @llvm.memcpy.p0.p0.i64(ptr nonnull align 4 %4, ptr align 1 %1, i64 %11, i1 false)
  %14 = zext i8 %10 to i32
  br label %15

15:                                               ; preds = %13, %8
  %.1 = phi i32 [ %14, %13 ], [ 0, %8 ]
  %16 = and i32 %2, 2
  %.not47 = icmp eq i32 %16, 0
  br i1 %.not47, label %23, label %17

17:                                               ; preds = %15
  %18 = getelementptr inbounds nuw i8, ptr %0, i64 796
  %19 = zext nneg i32 %.1 to i64
  %20 = getelementptr inbounds nuw i8, ptr %1, i64 %19
  tail call void @llvm.memcpy.p0.p0.i64(ptr nonnull align 4 %18, ptr align 1 %20, i64 %11, i1 false)
  %21 = zext i8 %10 to i32
  %22 = add nuw nsw i32 %.1, %21
  br label %23

23:                                               ; preds = %._crit_edge, %15, %17
  %.pre-phi = phi i32 [ %.pre, %._crit_edge ], [ %12, %15 ], [ %12, %17 ]
  %.0 = phi i32 [ 0, %._crit_edge ], [ %.1, %15 ], [ %22, %17 ]
  %24 = load i16, ptr %5, align 2, !tbaa !75
  %25 = zext i16 %24 to i64
  %.not48 = icmp eq i32 %.pre-phi, 0
  br i1 %.not48, label %32, label %26

26:                                               ; preds = %23
  %27 = getelementptr inbounds nuw i8, ptr %0, i64 860
  %28 = zext nneg i32 %.0 to i64
  %29 = getelementptr inbounds nuw i8, ptr %1, i64 %28
  tail call void @llvm.memcpy.p0.p0.i64(ptr nonnull align 4 %27, ptr align 1 %29, i64 %25, i1 false)
  %30 = zext i16 %24 to i32
  %31 = add nuw nsw i32 %.0, %30
  br label %32

32:                                               ; preds = %26, %23
  %.2 = phi i32 [ %31, %26 ], [ %.0, %23 ]
  %33 = and i32 %2, 2
  %.not49 = icmp eq i32 %33, 0
  br i1 %.not49, label %40, label %34

34:                                               ; preds = %32
  %35 = getelementptr inbounds nuw i8, ptr %0, i64 892
  %36 = zext nneg i32 %.2 to i64
  %37 = getelementptr inbounds nuw i8, ptr %1, i64 %36
  tail call void @llvm.memcpy.p0.p0.i64(ptr nonnull align 4 %35, ptr align 1 %37, i64 %25, i1 false)
  %38 = zext i16 %24 to i32
  %39 = add nuw nsw i32 %.2, %38
  br label %40

40:                                               ; preds = %34, %32
  %.3 = phi i32 [ %39, %34 ], [ %.2, %32 ]
  %41 = getelementptr inbounds nuw i8, ptr %0, i64 716
  %42 = load i16, ptr %41, align 2, !tbaa !76
  %43 = zext i16 %42 to i64
  br i1 %.not48, label %50, label %44

44:                                               ; preds = %40
  %45 = getelementptr inbounds nuw i8, ptr %0, i64 924
  %46 = zext nneg i32 %.3 to i64
  %47 = getelementptr inbounds nuw i8, ptr %1, i64 %46
  tail call void @llvm.memcpy.p0.p0.i64(ptr nonnull align 4 %45, ptr align 1 %47, i64 %43, i1 false)
  %48 = zext i16 %42 to i32
  %49 = add nuw nsw i32 %.3, %48
  br label %50

50:                                               ; preds = %44, %40
  %.4 = phi i32 [ %49, %44 ], [ %.3, %40 ]
  br i1 %.not49, label %55, label %51

51:                                               ; preds = %50
  %52 = getelementptr inbounds nuw i8, ptr %0, i64 940
  %53 = zext nneg i32 %.4 to i64
  %54 = getelementptr inbounds nuw i8, ptr %1, i64 %53
  tail call void @llvm.memcpy.p0.p0.i64(ptr nonnull align 4 %52, ptr align 1 %54, i64 %43, i1 false)
  br label %55

55:                                               ; preds = %51, %50
  br i1 %.not, label %56, label %58

56:                                               ; preds = %55
  %57 = getelementptr inbounds nuw i8, ptr %0, i64 956
  store i64 0, ptr %57, align 4
  br label %58

58:                                               ; preds = %56, %55
  ret i32 0
}